target datalayout = "e-m:e-p270:32:32-p271:32:32-p272:64:64-i64:64-i128:128-f80:128-n8:16:32:64-S128"
target triple = "x86_64-pc-linux-gnu"

@hf_afp_map_id = internal global i32 0, align 4
@hf_afp_map_id_reply_type = internal global i32 0, align 4
@hf_afp_map_name = internal global i32 0, align 4
@hf_afp_unknown = internal global i32 0, align 4

; Function Attrs: null_pointer_is_valid sspstrong uwtable
define internal i32 @dissect_reply_afp_map_id(ptr noundef %0, ptr noundef %1, ptr noundef %2, i32 noundef %3) #1 {
  %5 = alloca ptr, align 8
  %6 = alloca ptr, align 8
  %7 = alloca ptr, align 8
  %8 = alloca i32, align 4
  %9 = alloca i32, align 4
  %10 = alloca i32, align 4
  %11 = alloca i32, align 4
  store ptr %0, ptr %5, align 8
  store ptr %1, ptr %6, align 8
  store ptr %2, ptr %7, align 8
  store i32 %3, ptr %8, align 4
  call void @llvm.lifetime.start.p0(i64 4, ptr %9) #8
  call void @llvm.lifetime.start.p0(i64 4, ptr %10) #8
  store i32 1, ptr %10, align 4
  %12 = load ptr, ptr %5, align 8
  %13 = load i32, ptr %8, align 4
  %14 = call zeroext i8 @tvb_get_uint8(ptr noundef %12, i32 noundef %13)
  %15 = zext i8 %14 to i32
  store i32 %15, ptr %9, align 4
  %16 = load i32, ptr %9, align 4
  %17 = icmp ne i32 %16, 0
  br i1 %17, label %59, label %18

18:                                               ; preds = %4
  %19 = load ptr, ptr %5, align 8
  %20 = load i32, ptr %8, align 4
  %21 = add i32 %20, 1
  %22 = call zeroext i8 @tvb_get_uint8(ptr noundef %19, i32 noundef %21)
  %23 = zext i8 %22 to i32
  store i32 %23, ptr %9, align 4
  %24 = load i32, ptr %9, align 4
  %25 = icmp ne i32 %24, 0
  br i1 %25, label %46, label %26

26:                                               ; preds = %18
  %27 = load ptr, ptr %7, align 8
  %28 = load i32, ptr @hf_afp_map_id_reply_type, align 4
  %29 = load ptr, ptr %5, align 8
  %30 = load i32, ptr %8, align 4
  %31 = call ptr @proto_tree_add_item(ptr noundef %27, i32 noundef %28, ptr noundef %29, i32 noundef %30, i32 noundef 4, i32 noundef 0)
  %32 = load i32, ptr %8, align 4
  %33 = add i32 %32, 4
  store i32 %33, ptr %8, align 4
  %34 = load ptr, ptr %7, align 8
  %35 = load i32, ptr @hf_afp_map_id, align 4
  %36 = load ptr, ptr %5, align 8
  %37 = load i32, ptr %8, align 4
  %38 = call ptr @proto_tree_add_item(ptr noundef %34, i32 noundef %35, ptr noundef %36, i32 noundef %37, i32 noundef 4, i32 noundef 0)
  %39 = load i32, ptr %8, align 4
  %40 = add i32 %39, 4
  store i32 %40, ptr %8, align 4
  store i32 2, ptr %10, align 4
  %41 = load ptr, ptr %5, align 8
  %42 = load i32, ptr %8, align 4
  %43 = add i32 %42, 1
  %44 = call zeroext i8 @tvb_get_uint8(ptr noundef %41, i32 noundef %43)
  %45 = zext i8 %44 to i32
  store i32 %45, ptr %9, align 4
  br label %58

46:                                               ; preds = %18
  call void @llvm.lifetime.start.p0(i64 4, ptr %11) #8
  %47 = load ptr, ptr %5, align 8
  %48 = load i32, ptr %8, align 4
  %49 = call i32 @tvb_reported_length_remaining(ptr noundef %47, i32 noundef %48)
  store i32 %49, ptr %11, align 4
  %50 = load i32, ptr %11, align 4
  %51 = load i32, ptr %9, align 4
  %52 = add i32 %51, 2
  %53 = icmp eq i32 %50, %52
  br i1 %53, label %54, label %55

54:                                               ; preds = %46
  store i32 2, ptr %10, align 4
  br label %57

55:                                               ; preds = %46
  %56 = load i32, ptr %11, align 4
  store i32 %56, ptr %9, align 4
  store i32 0, ptr %10, align 4
  br label %57

57:                                               ; preds = %55, %54
  call void @llvm.lifetime.end.p0(i64 4, ptr %11) #8
  br label %58

58:                                               ; preds = %57, %26
  br label %59

59:                                               ; preds = %58, %4
  %60 = load i32, ptr %10, align 4
  %61 = icmp ne i32 %60, 0
  br i1 %61, label %62, label %69

62:                                               ; preds = %59
  %63 = load ptr, ptr %7, align 8
  %64 = load i32, ptr @hf_afp_map_name, align 4
  %65 = load ptr, ptr %5, align 8
  %66 = load i32, ptr %8, align 4
  %67 = load i32, ptr %10, align 4
  %68 = call ptr @proto_tree_add_item(ptr noundef %63, i32 noundef %64, ptr noundef %65, i32 noundef %66, i32 noundef %67, i32 noundef 0)
  br label %76

69:                                               ; preds = %59
  %70 = load ptr, ptr %7, align 8
  %71 = load i32, ptr @hf_afp_unknown, align 4
  %72 = load ptr, ptr %5, align 8
  %73 = load i32, ptr %8, align 4
  %74 = load i32, ptr %9, align 4
  %75 = call ptr @proto_tree_add_item(ptr noundef %70, i32 noundef %71, ptr noundef %72, i32 noundef %73, i32 noundef %74, i32 noundef 0)
  br label %76

76:                                               ; preds = %69, %62
  %77 = load i32, ptr %9, align 4
  %78 = load i32, ptr %10, align 4
  %79 = add i32 %77, %78
  %80 = load i32, ptr %8, align 4
  %81 = add i32 %80, %79
  store i32 %81, ptr %8, align 4
  %82 = load i32, ptr %8, align 4
  call void @llvm.lifetime.end.p0(i64 4, ptr %10) #8
  call void @llvm.lifetime.end.p0(i64 4, ptr %9) #8
  ret i32 %82
}