; Function Attrs: null_pointer_is_valid sspstrong uwtable
define internal fastcc i32 @dissect_reply_afp_map_id(ptr noundef %0, ptr noundef %1) unnamed_addr #1 {
  %3 = tail call zeroext i8 @tvb_get_uint8(ptr noundef %0, i32 noundef 0)
  %4 = zext i8 %3 to i32
  %.not = icmp eq i8 %3, 0
  br i1 %.not, label %5, label %select.unfold

5:                                                ; preds = %2
  %6 = tail call zeroext i8 @tvb_get_uint8(ptr noundef %0, i32 noundef 1)
  %.not39 = icmp eq i8 %6, 0
  br i1 %.not39, label %7, label %14

7:                                                ; preds = %5
  %8 = load i32, ptr @hf_afp_map_id_reply_type, align 4
  %9 = tail call ptr @proto_tree_add_item(ptr noundef %1, i32 noundef %8, ptr noundef %0, i32 noundef 0, i32 noundef 4, i32 noundef 0)
  %10 = load i32, ptr @hf_afp_map_id, align 4
  %11 = tail call ptr @proto_tree_add_item(ptr noundef %1, i32 noundef %10, ptr noundef %0, i32 noundef 4, i32 noundef 4, i32 noundef 0)
  %12 = tail call zeroext i8 @tvb_get_uint8(ptr noundef %0, i32 noundef 9)
  %13 = zext i8 %12 to i32
  br label %select.unfold

14:                                               ; preds = %5
  %15 = zext i8 %6 to i32
  %16 = tail call i32 @tvb_reported_length_remaining(ptr noundef %0, i32 noundef 0)
  %17 = add nuw nsw i32 %15, 2
  %18 = icmp eq i32 %16, %17
  br i1 %18, label %select.unfold, label %22

select.unfold:                                    ; preds = %14, %2, %7
  %.034.ph = phi i32 [ %13, %7 ], [ %4, %2 ], [ %15, %14 ]
  %.033.ph = phi i32 [ 2, %7 ], [ 1, %2 ], [ 2, %14 ]
  %.0.ph = phi i32 [ 8, %7 ], [ 0, %2 ], [ 0, %14 ]
  %19 = load i32, ptr @hf_afp_map_name, align 4
  %20 = tail call ptr @proto_tree_add_item(ptr noundef %1, i32 noundef %19, ptr noundef %0, i32 noundef %.0.ph, i32 noundef %.033.ph, i32 noundef 0)
  %21 = or disjoint i32 %.033.ph, %.0.ph
  br label %25

22:                                               ; preds = %14
  %23 = load i32, ptr @hf_afp_unknown, align 4
  %24 = tail call ptr @proto_tree_add_item(ptr noundef %1, i32 noundef %23, ptr noundef %0, i32 noundef 0, i32 noundef %16, i32 noundef 0)
  br label %25

25:                                               ; preds = %22, %select.unfold
  %.0345 = phi i32 [ %16, %22 ], [ %.034.ph, %select.unfold ]
  %26 = phi i32 [ 0, %22 ], [ %21, %select.unfold ]
  %27 = add i32 %26, %.0345
  ret i32 %27
}